; Function Attrs: null_pointer_is_valid sspstrong uwtable
define internal noundef i32 @cigi3_add_motion_tracker_control(ptr noundef %0, ptr readnone captures(none) %1, ptr noundef %2, ptr readnone captures(none) %3) #0 {
  %5 = load i32, ptr @hf_cigi3_motion_tracker_control_view_group_id, align 4
  %.b46 = load i1, ptr @cigi_byte_order, align 4
  %6 = select i1 %.b46, i32 -2147483648, i32 0
  %7 = tail call ptr @proto_tree_add_item(ptr noundef %2, i32 noundef %5, ptr noundef %0, i32 noundef 0, i32 noundef 2, i32 noundef %6)
  %8 = load i32, ptr @hf_cigi3_motion_tracker_control_tracker_id, align 4
  %.b45 = load i1, ptr @cigi_byte_order, align 4
  %9 = select i1 %.b45, i32 -2147483648, i32 0
  %10 = tail call ptr @proto_tree_add_item(ptr noundef %2, i32 noundef %8, ptr noundef %0, i32 noundef 2, i32 noundef 1, i32 noundef %9)
  %11 = load i32, ptr @hf_cigi3_motion_tracker_control_tracker_enable, align 4
  %.b44 = load i1, ptr @cigi_byte_order, align 4
  %12 = select i1 %.b44, i32 -2147483648, i32 0
  %13 = tail call ptr @proto_tree_add_item(ptr noundef %2, i32 noundef %11, ptr noundef %0, i32 noundef 3, i32 noundef 1, i32 noundef %12)
  %14 = load i32, ptr @hf_cigi3_motion_tracker_control_boresight_enable, align 4
  %.b43 = load i1, ptr @cigi_byte_order, align 4
  %15 = select i1 %.b43, i32 -2147483648, i32 0
  %16 = tail call ptr @proto_tree_add_item(ptr noundef %2, i32 noundef %14, ptr noundef %0, i32 noundef 3, i32 noundef 1, i32 noundef %15)
  %17 = load i32, ptr @hf_cigi3_motion_tracker_control_x_enable, align 4
  %.b42 = load i1, ptr @cigi_byte_order, align 4
  %18 = select i1 %.b42, i32 -2147483648, i32 0
  %19 = tail call ptr @proto_tree_add_item(ptr noundef %2, i32 noundef %17, ptr noundef %0, i32 noundef 3, i32 noundef 1, i32 noundef %18)
  %20 = load i32, ptr @hf_cigi3_motion_tracker_control_y_enable, align 4
  %.b41 = load i1, ptr @cigi_byte_order, align 4
  %21 = select i1 %.b41, i32 -2147483648, i32 0
  %22 = tail call ptr @proto_tree_add_item(ptr noundef %2, i32 noundef %20, ptr noundef %0, i32 noundef 3, i32 noundef 1, i32 noundef %21)
  %23 = load i32, ptr @hf_cigi3_motion_tracker_control_z_enable, align 4
  %.b40 = load i1, ptr @cigi_byte_order, align 4
  %24 = select i1 %.b40, i32 -2147483648, i32 0
  %25 = tail call ptr @proto_tree_add_item(ptr noundef %2, i32 noundef %23, ptr noundef %0, i32 noundef 3, i32 noundef 1, i32 noundef %24)
  %26 = load i32, ptr @hf_cigi3_motion_tracker_control_roll_enable, align 4
  %.b39 = load i1, ptr @cigi_byte_order, align 4
  %27 = select i1 %.b39, i32 -2147483648, i32 0
  %28 = tail call ptr @proto_tree_add_item(ptr noundef %2, i32 noundef %26, ptr noundef %0, i32 noundef 3, i32 noundef 1, i32 noundef %27)
  %29 = load i32, ptr @hf_cigi3_motion_tracker_control_pitch_enable, align 4
  %.b38 = load i1, ptr @cigi_byte_order, align 4
  %30 = select i1 %.b38, i32 -2147483648, i32 0
  %31 = tail call ptr @proto_tree_add_item(ptr noundef %2, i32 noundef %29, ptr noundef %0, i32 noundef 3, i32 noundef 1, i32 noundef %30)
  %32 = load i32, ptr @hf_cigi3_motion_tracker_control_yaw_enable, align 4
  %.b37 = load i1, ptr @cigi_byte_order, align 4
  %33 = select i1 %.b37, i32 -2147483648, i32 0
  %34 = tail call ptr @proto_tree_add_item(ptr noundef %2, i32 noundef %32, ptr noundef %0, i32 noundef 3, i32 noundef 1, i32 noundef %33)
  %35 = load i32, ptr @hf_cigi3_motion_tracker_control_view_group_select, align 4
  %.b = load i1, ptr @cigi_byte_order, align 4
  %36 = select i1 %.b, i32 -2147483648, i32 0
  %37 = tail call ptr @proto_tree_add_item(ptr noundef %2, i32 noundef %35, ptr noundef %0, i32 noundef 4, i32 noundef 1, i32 noundef %36)
  ret i32 6
}